target datalayout = "e-m:e-p270:32:32-p271:32:32-p272:64:64-i64:64-i128:128-f80:128-n8:16:32:64-S128"
target triple = "x86_64-pc-linux-gnu"

%"class.LIEF::iterator_range" = type { %"class.LIEF::assembly::Instruction::Iterator", %"class.LIEF::assembly::Instruction::Iterator" }
%"class.LIEF::assembly::Instruction::Iterator" = type { %"class.std::unique_ptr.122" }
%"class.std::unique_ptr.122" = type { %"struct.std::__uniq_ptr_data.123" }
%"struct.std::__uniq_ptr_data.123" = type { %"class.std::__uniq_ptr_impl.124" }
%"class.std::__uniq_ptr_impl.124" = type { %"class.std::tuple.125" }
%"class.std::tuple.125" = type { %"struct.std::_Tuple_impl.126" }
%"struct.std::_Tuple_impl.126" = type { %"struct.std::_Head_base.129" }
%"struct.std::_Head_base.129" = type { ptr }

; Function Attrs: mustprogress nounwind uwtable
define linkonce_odr hidden void @_ZN4LIEF14iterator_rangeINS_8assembly11Instruction8IteratorEEC2EOS3_S5_(ptr noundef nonnull align 8 dereferenceable(16) %0, ptr noundef nonnull align 8 dereferenceable(8) %1, ptr noundef nonnull align 8 dereferenceable(8) %2) unnamed_addr #1 comdat align 2 {
  %4 = alloca ptr, align 8
  %5 = alloca ptr, align 8
  %6 = alloca ptr, align 8
  store ptr %0, ptr %4, align 8, !tbaa !1384
  store ptr %1, ptr %5, align 8, !tbaa !76
  store ptr %2, ptr %6, align 8, !tbaa !76
  %7 = load ptr, ptr %4, align 8
  %8 = getelementptr inbounds nuw %"class.LIEF::iterator_range", ptr %7, i32 0, i32 0
  %9 = load ptr, ptr %5, align 8, !tbaa !76
  call void @_ZN4LIEF8assembly11Instruction8IteratorC1EOS2_(ptr noundef nonnull align 8 dereferenceable(8) %8, ptr noundef nonnull align 8 dereferenceable(8) %9) #19
  %10 = getelementptr inbounds nuw %"class.LIEF::iterator_range", ptr %7, i32 0, i32 1
  %11 = load ptr, ptr %6, align 8, !tbaa !76
  call void @_ZN4LIEF8assembly11Instruction8IteratorC1EOS2_(ptr noundef nonnull align 8 dereferenceable(8) %10, ptr noundef nonnull align 8 dereferenceable(8) %11) #19
  ret void
}

; Function Attrs: mustprogress nounwind uwtable
define linkonce_odr hidden void @_ZN4LIEF10make_rangeINS_8assembly11Instruction8IteratorEEENS_14iterator_rangeIT_EEOS5_S7_(ptr dead_on_unwind noalias writable sret(%"class.LIEF::iterator_range") align 8 %0, ptr noundef nonnull align 8 dereferenceable(8) %1, ptr noundef nonnull align 8 dereferenceable(8) %2) #1 comdat {
  %4 = alloca ptr, align 8
  %5 = alloca ptr, align 8
  %6 = alloca ptr, align 8
  store ptr %0, ptr %4, align 8
  store ptr %1, ptr %5, align 8, !tbaa !76
  store ptr %2, ptr %6, align 8, !tbaa !76
  %7 = load ptr, ptr %5, align 8, !tbaa !76
  %8 = load ptr, ptr %6, align 8, !tbaa !76
  call void @_ZN4LIEF14iterator_rangeINS_8assembly11Instruction8IteratorEEC2EOS3_S5_(ptr noundef nonnull align 8 dereferenceable(16) %0, ptr noundef nonnull align 8 dereferenceable(8) %7, ptr noundef nonnull align 8 dereferenceable(8) %8)
  ret void
}

; Function Attrs: mustprogress nounwind uwtable
define void @_ZNK4LIEF5dwarf8Function12instructionsEv(ptr dead_on_unwind noalias writable sret(%"class.LIEF::iterator_range") align 8 %0, ptr noundef nonnull align 8 dereferenceable(8) %1) #1 align 2 {
  %3 = alloca ptr, align 8
  %4 = alloca ptr, align 8
  %5 = alloca %"class.LIEF::assembly::Instruction::Iterator", align 8
  %6 = alloca %"class.LIEF::assembly::Instruction::Iterator", align 8
  store ptr %0, ptr %3, align 8
  store ptr %1, ptr %4, align 8, !tbaa !68
  call void @llvm.lifetime.start.p0(i64 8, ptr %5) #19
  call void @_ZN4LIEF8assembly11Instruction8IteratorC1Ev(ptr noundef nonnull align 8 dereferenceable(8) %5)
  call void @llvm.lifetime.start.p0(i64 8, ptr %6) #19
  call void @_ZN4LIEF8assembly11Instruction8IteratorC1Ev(ptr noundef nonnull align 8 dereferenceable(8) %6)
  call void @_ZN4LIEF10make_rangeINS_8assembly11Instruction8IteratorEEENS_14iterator_rangeIT_EEOS5_S7_(ptr dead_on_unwind writable sret(%"class.LIEF::iterator_range") align 8 %0, ptr noundef nonnull align 8 dereferenceable(8) %5, ptr noundef nonnull align 8 dereferenceable(8) %6)
  call void @_ZN4LIEF8assembly11Instruction8IteratorD1Ev(ptr noundef nonnull align 8 dereferenceable(8) %6) #19
  call void @llvm.lifetime.end.p0(i64 8, ptr %6) #19
  call void @_ZN4LIEF8assembly11Instruction8IteratorD1Ev(ptr noundef nonnull align 8 dereferenceable(8) %5) #19
  call void @llvm.lifetime.end.p0(i64 8, ptr %5) #19
  ret void
}